target datalayout = "e-m:e-p270:32:32-p271:32:32-p272:64:64-i64:64-i128:128-f80:128-n8:16:32:64-S128"
target triple = "x86_64-pc-linux-gnu"

%struct.SDL_TimerData = type { %struct.SDL_InitState, ptr, ptr, ptr, [128 x i8], i32, ptr, ptr, ptr, %struct.SDL_AtomicInt, ptr }
%struct.SDL_InitState = type { %struct.SDL_AtomicInt, i64, ptr }
%struct.SDL_AtomicInt = type { i32 }
%struct.SDL_Timer = type { i32, ptr, ptr, ptr, i64, i64, %struct.SDL_AtomicInt, ptr }

; Function Attrs: nounwind uwtable
define internal void @SDL_AddTimerInternal(ptr noundef %0, ptr noundef %1) #0 {
  %3 = alloca ptr, align 8
  %4 = alloca ptr, align 8
  %5 = alloca ptr, align 8
  %6 = alloca ptr, align 8
  store ptr %0, ptr %3, align 8
  store ptr %1, ptr %4, align 8
  call void @llvm.lifetime.start.p0(i64 8, ptr %5) #3
  call void @llvm.lifetime.start.p0(i64 8, ptr %6) #3
  store ptr null, ptr %5, align 8
  %7 = load ptr, ptr %3, align 8
  %8 = getelementptr inbounds nuw %struct.SDL_TimerData, ptr %7, i32 0, i32 10
  %9 = load ptr, ptr %8, align 8
  store ptr %9, ptr %6, align 8
  br label %10

10:                                               ; preds = %23, %2
  %11 = load ptr, ptr %6, align 8
  %12 = icmp ne ptr %11, null
  br i1 %12, label %13, label %28

13:                                               ; preds = %10
  %14 = load ptr, ptr %6, align 8
  %15 = getelementptr inbounds nuw %struct.SDL_Timer, ptr %14, i32 0, i32 5
  %16 = load i64, ptr %15, align 8
  %17 = load ptr, ptr %4, align 8
  %18 = getelementptr inbounds nuw %struct.SDL_Timer, ptr %17, i32 0, i32 5
  %19 = load i64, ptr %18, align 8
  %20 = icmp ugt i64 %16, %19
  br i1 %20, label %21, label %22

21:                                               ; preds = %13
  br label %28

22:                                               ; preds = %13
  br label %23

23:                                               ; preds = %22
  %24 = load ptr, ptr %6, align 8
  store ptr %24, ptr %5, align 8
  %25 = load ptr, ptr %6, align 8
  %26 = getelementptr inbounds nuw %struct.SDL_Timer, ptr %25, i32 0, i32 7
  %27 = load ptr, ptr %26, align 8
  store ptr %27, ptr %6, align 8
  br label %10, !llvm.loop !16

28:                                               ; preds = %21, %10
  %29 = load ptr, ptr %5, align 8
  %30 = icmp ne ptr %29, null
  br i1 %30, label %31, label %35

31:                                               ; preds = %28
  %32 = load ptr, ptr %4, align 8
  %33 = load ptr, ptr %5, align 8
  %34 = getelementptr inbounds nuw %struct.SDL_Timer, ptr %33, i32 0, i32 7
  store ptr %32, ptr %34, align 8
  br label %39

35:                                               ; preds = %28
  %36 = load ptr, ptr %4, align 8
  %37 = load ptr, ptr %3, align 8
  %38 = getelementptr inbounds nuw %struct.SDL_TimerData, ptr %37, i32 0, i32 10
  store ptr %36, ptr %38, align 8
  br label %39

39:                                               ; preds = %35, %31
  %40 = load ptr, ptr %6, align 8
  %41 = load ptr, ptr %4, align 8
  %42 = getelementptr inbounds nuw %struct.SDL_Timer, ptr %41, i32 0, i32 7
  store ptr %40, ptr %42, align 8
  call void @llvm.lifetime.end.p0(i64 8, ptr %6) #3
  call void @llvm.lifetime.end.p0(i64 8, ptr %5) #3
  ret void
}

; Function Attrs: nounwind uwtable
define internal i32 @SDL_TimerThread(ptr noundef %0) #0 {
  %2 = alloca ptr, align 8
  %3 = alloca ptr, align 8
  %4 = alloca ptr, align 8
  %5 = alloca ptr, align 8
  %6 = alloca ptr, align 8
  %7 = alloca ptr, align 8
  %8 = alloca i64, align 8
  %9 = alloca i64, align 8
  %10 = alloca i64, align 8
  %11 = alloca i64, align 8
  store ptr %0, ptr %2, align 8
  call void @llvm.lifetime.start.p0(i64 8, ptr %3) #3
  %12 = load ptr, ptr %2, align 8
  store ptr %12, ptr %3, align 8
  call void @llvm.lifetime.start.p0(i64 8, ptr %4) #3
  call void @llvm.lifetime.start.p0(i64 8, ptr %5) #3
  call void @llvm.lifetime.start.p0(i64 8, ptr %6) #3
  store ptr null, ptr %6, align 8
  call void @llvm.lifetime.start.p0(i64 8, ptr %7) #3
  store ptr null, ptr %7, align 8
  call void @llvm.lifetime.start.p0(i64 8, ptr %8) #3
  call void @llvm.lifetime.start.p0(i64 8, ptr %9) #3
  call void @llvm.lifetime.start.p0(i64 8, ptr %10) #3
  call void @llvm.lifetime.start.p0(i64 8, ptr %11) #3
  br label %13

13:                                               ; preds = %167, %1
  %14 = load ptr, ptr %3, align 8
  %15 = getelementptr inbounds nuw %struct.SDL_TimerData, ptr %14, i32 0, i32 5
  call void @SDL_LockSpinlock_REAL(ptr noundef %15)
  %16 = load ptr, ptr %3, align 8
  %17 = getelementptr inbounds nuw %struct.SDL_TimerData, ptr %16, i32 0, i32 7
  %18 = load ptr, ptr %17, align 8
  store ptr %18, ptr %4, align 8
  %19 = load ptr, ptr %3, align 8
  %20 = getelementptr inbounds nuw %struct.SDL_TimerData, ptr %19, i32 0, i32 7
  store ptr null, ptr %20, align 8
  %21 = load ptr, ptr %6, align 8
  %22 = icmp ne ptr %21, null
  br i1 %22, label %23, label %32

23:                                               ; preds = %13
  %24 = load ptr, ptr %3, align 8
  %25 = getelementptr inbounds nuw %struct.SDL_TimerData, ptr %24, i32 0, i32 8
  %26 = load ptr, ptr %25, align 8
  %27 = load ptr, ptr %7, align 8
  %28 = getelementptr inbounds nuw %struct.SDL_Timer, ptr %27, i32 0, i32 7
  store ptr %26, ptr %28, align 8
  %29 = load ptr, ptr %6, align 8
  %30 = load ptr, ptr %3, align 8
  %31 = getelementptr inbounds nuw %struct.SDL_TimerData, ptr %30, i32 0, i32 8
  store ptr %29, ptr %31, align 8
  br label %32

32:                                               ; preds = %23, %13
  %33 = load ptr, ptr %3, align 8
  %34 = getelementptr inbounds nuw %struct.SDL_TimerData, ptr %33, i32 0, i32 5
  call void @SDL_UnlockSpinlock_REAL(ptr noundef %34)
  br label %35

35:                                               ; preds = %38, %32
  %36 = load ptr, ptr %4, align 8
  %37 = icmp ne ptr %36, null
  br i1 %37, label %38, label %45

38:                                               ; preds = %35
  %39 = load ptr, ptr %4, align 8
  store ptr %39, ptr %5, align 8
  %40 = load ptr, ptr %4, align 8
  %41 = getelementptr inbounds nuw %struct.SDL_Timer, ptr %40, i32 0, i32 7
  %42 = load ptr, ptr %41, align 8
  store ptr %42, ptr %4, align 8
  %43 = load ptr, ptr %3, align 8
  %44 = load ptr, ptr %5, align 8
  call void @SDL_AddTimerInternal(ptr noundef %43, ptr noundef %44)
  br label %35, !llvm.loop !3

45:                                               ; preds = %35
  store ptr null, ptr %6, align 8
  store ptr null, ptr %7, align 8
  %46 = load ptr, ptr %3, align 8
  %47 = getelementptr inbounds nuw %struct.SDL_TimerData, ptr %46, i32 0, i32 9
  %48 = call i32 @SDL_GetAtomicInt_REAL(ptr noundef %47)
  %49 = icmp ne i32 %48, 0
  br i1 %49, label %51, label %50

50:                                               ; preds = %45
  br label %173

51:                                               ; preds = %45
  store i64 -1, ptr %11, align 8
  %52 = call i64 @SDL_GetTicksNS_REAL()
  store i64 %52, ptr %8, align 8
  br label %53

53:                                               ; preds = %153, %51
  %54 = load ptr, ptr %3, align 8
  %55 = getelementptr inbounds nuw %struct.SDL_TimerData, ptr %54, i32 0, i32 10
  %56 = load ptr, ptr %55, align 8
  %57 = icmp ne ptr %56, null
  br i1 %57, label %58, label %154

58:                                               ; preds = %53
  %59 = load ptr, ptr %3, align 8
  %60 = getelementptr inbounds nuw %struct.SDL_TimerData, ptr %59, i32 0, i32 10
  %61 = load ptr, ptr %60, align 8
  store ptr %61, ptr %5, align 8
  %62 = load i64, ptr %8, align 8
  %63 = load ptr, ptr %5, align 8
  %64 = getelementptr inbounds nuw %struct.SDL_Timer, ptr %63, i32 0, i32 5
  %65 = load i64, ptr %64, align 8
  %66 = icmp ult i64 %62, %65
  br i1 %66, label %67, label %73

67:                                               ; preds = %58
  %68 = load ptr, ptr %5, align 8
  %69 = getelementptr inbounds nuw %struct.SDL_Timer, ptr %68, i32 0, i32 5
  %70 = load i64, ptr %69, align 8
  %71 = load i64, ptr %8, align 8
  %72 = sub i64 %70, %71
  store i64 %72, ptr %11, align 8
  br label %154

73:                                               ; preds = %58
  %74 = load ptr, ptr %5, align 8
  %75 = getelementptr inbounds nuw %struct.SDL_Timer, ptr %74, i32 0, i32 7
  %76 = load ptr, ptr %75, align 8
  %77 = load ptr, ptr %3, align 8
  %78 = getelementptr inbounds nuw %struct.SDL_TimerData, ptr %77, i32 0, i32 10
  store ptr %76, ptr %78, align 8
  %79 = load ptr, ptr %5, align 8
  %80 = getelementptr inbounds nuw %struct.SDL_Timer, ptr %79, i32 0, i32 6
  %81 = call i32 @SDL_GetAtomicInt_REAL(ptr noundef %80)
  %82 = icmp ne i32 %81, 0
  br i1 %82, label %83, label %84

83:                                               ; preds = %73
  store i64 0, ptr %10, align 8
  br label %122

84:                                               ; preds = %73
  %85 = load ptr, ptr %5, align 8
  %86 = getelementptr inbounds nuw %struct.SDL_Timer, ptr %85, i32 0, i32 1
  %87 = load ptr, ptr %86, align 8
  %88 = icmp ne ptr %87, null
  br i1 %88, label %89, label %107

89:                                               ; preds = %84
  %90 = load ptr, ptr %5, align 8
  %91 = getelementptr inbounds nuw %struct.SDL_Timer, ptr %90, i32 0, i32 1
  %92 = load ptr, ptr %91, align 8
  %93 = load ptr, ptr %5, align 8
  %94 = getelementptr inbounds nuw %struct.SDL_Timer, ptr %93, i32 0, i32 3
  %95 = load ptr, ptr %94, align 8
  %96 = load ptr, ptr %5, align 8
  %97 = getelementptr inbounds nuw %struct.SDL_Timer, ptr %96, i32 0, i32 0
  %98 = load i32, ptr %97, align 8
  %99 = load ptr, ptr %5, align 8
  %100 = getelementptr inbounds nuw %struct.SDL_Timer, ptr %99, i32 0, i32 4
  %101 = load i64, ptr %100, align 8
  %102 = udiv i64 %101, 1000000
  %103 = trunc i64 %102 to i32
  %104 = call i32 %92(ptr noundef %95, i32 noundef %98, i32 noundef %103)
  %105 = zext i32 %104 to i64
  %106 = mul i64 %105, 1000000
  store i64 %106, ptr %10, align 8
  br label %121

107:                                              ; preds = %84
  %108 = load ptr, ptr %5, align 8
  %109 = getelementptr inbounds nuw %struct.SDL_Timer, ptr %108, i32 0, i32 2
  %110 = load ptr, ptr %109, align 8
  %111 = load ptr, ptr %5, align 8
  %112 = getelementptr inbounds nuw %struct.SDL_Timer, ptr %111, i32 0, i32 3
  %113 = load ptr, ptr %112, align 8
  %114 = load ptr, ptr %5, align 8
  %115 = getelementptr inbounds nuw %struct.SDL_Timer, ptr %114, i32 0, i32 0
  %116 = load i32, ptr %115, align 8
  %117 = load ptr, ptr %5, align 8
  %118 = getelementptr inbounds nuw %struct.SDL_Timer, ptr %117, i32 0, i32 4
  %119 = load i64, ptr %118, align 8
  %120 = call i64 %110(ptr noundef %113, i32 noundef %116, i64 noundef %119)
  store i64 %120, ptr %10, align 8
  br label %121

121:                                              ; preds = %107, %89
  br label %122

122:                                              ; preds = %121, %83
  %123 = load i64, ptr %10, align 8
  %124 = icmp ugt i64 %123, 0
  br i1 %124, label %125, label %136

125:                                              ; preds = %122
  %126 = load i64, ptr %10, align 8
  %127 = load ptr, ptr %5, align 8
  %128 = getelementptr inbounds nuw %struct.SDL_Timer, ptr %127, i32 0, i32 4
  store i64 %126, ptr %128, align 8
  %129 = load i64, ptr %8, align 8
  %130 = load i64, ptr %10, align 8
  %131 = add i64 %129, %130
  %132 = load ptr, ptr %5, align 8
  %133 = getelementptr inbounds nuw %struct.SDL_Timer, ptr %132, i32 0, i32 5
  store i64 %131, ptr %133, align 8
  %134 = load ptr, ptr %3, align 8
  %135 = load ptr, ptr %5, align 8
  call void @SDL_AddTimerInternal(ptr noundef %134, ptr noundef %135)
  br label %153

136:                                              ; preds = %122
  %137 = load ptr, ptr %6, align 8
  %138 = icmp ne ptr %137, null
  br i1 %138, label %141, label %139

139:                                              ; preds = %136
  %140 = load ptr, ptr %5, align 8
  store ptr %140, ptr %6, align 8
  br label %141

141:                                              ; preds = %139, %136
  %142 = load ptr, ptr %7, align 8
  %143 = icmp ne ptr %142, null
  br i1 %143, label %144, label %148

144:                                              ; preds = %141
  %145 = load ptr, ptr %5, align 8
  %146 = load ptr, ptr %7, align 8
  %147 = getelementptr inbounds nuw %struct.SDL_Timer, ptr %146, i32 0, i32 7
  store ptr %145, ptr %147, align 8
  br label %148

148:                                              ; preds = %144, %141
  %149 = load ptr, ptr %5, align 8
  store ptr %149, ptr %7, align 8
  %150 = load ptr, ptr %5, align 8
  %151 = getelementptr inbounds nuw %struct.SDL_Timer, ptr %150, i32 0, i32 6
  %152 = call i32 @SDL_SetAtomicInt_REAL(ptr noundef %151, i32 noundef 1)
  br label %153

153:                                              ; preds = %148, %125
  br label %53, !llvm.loop !5

154:                                              ; preds = %67, %53
  %155 = call i64 @SDL_GetTicksNS_REAL()
  store i64 %155, ptr %9, align 8
  %156 = load i64, ptr %9, align 8
  %157 = load i64, ptr %8, align 8
  %158 = sub i64 %156, %157
  store i64 %158, ptr %10, align 8
  %159 = load i64, ptr %10, align 8
  %160 = load i64, ptr %11, align 8
  %161 = icmp ugt i64 %159, %160
  br i1 %161, label %162, label %163

162:                                              ; preds = %154
  store i64 0, ptr %11, align 8
  br label %167

163:                                              ; preds = %154
  %164 = load i64, ptr %10, align 8
  %165 = load i64, ptr %11, align 8
  %166 = sub i64 %165, %164
  store i64 %166, ptr %11, align 8
  br label %167

167:                                              ; preds = %163, %162
  %168 = load ptr, ptr %3, align 8
  %169 = getelementptr inbounds nuw %struct.SDL_TimerData, ptr %168, i32 0, i32 6
  %170 = load ptr, ptr %169, align 8
  %171 = load i64, ptr %11, align 8
  %172 = call zeroext i1 @SDL_WaitSemaphoreTimeoutNS(ptr noundef %170, i64 noundef %171)
  br label %13

173:                                              ; preds = %50
  call void @llvm.lifetime.end.p0(i64 8, ptr %11) #3
  call void @llvm.lifetime.end.p0(i64 8, ptr %10) #3
  call void @llvm.lifetime.end.p0(i64 8, ptr %9) #3
  call void @llvm.lifetime.end.p0(i64 8, ptr %8) #3
  call void @llvm.lifetime.end.p0(i64 8, ptr %7) #3
  call void @llvm.lifetime.end.p0(i64 8, ptr %6) #3
  call void @llvm.lifetime.end.p0(i64 8, ptr %5) #3
  call void @llvm.lifetime.end.p0(i64 8, ptr %4) #3
  call void @llvm.lifetime.end.p0(i64 8, ptr %3) #3
  ret i32 0
}