; Function Attrs: nounwind uwtable
define internal noundef i32 @SDL_TimerThread(ptr noundef %0) #0 {
  %2 = getelementptr inbounds nuw i8, ptr %0, i64 208
  %3 = getelementptr inbounds nuw i8, ptr %0, i64 176
  %4 = getelementptr inbounds nuw i8, ptr %0, i64 192
  %5 = getelementptr inbounds nuw i8, ptr %0, i64 200
  %6 = getelementptr inbounds nuw i8, ptr %0, i64 216
  %7 = getelementptr inbounds nuw i8, ptr %0, i64 184
  br label %8

8:                                                ; preds = %.loopexit, %1
  %.060 = phi ptr [ null, %1 ], [ %.161102, %.loopexit ]
  %.058 = phi ptr [ null, %1 ], [ %.159100, %.loopexit ]
  tail call void @SDL_LockSpinlock_REAL(ptr noundef nonnull %3) #3
  %9 = load ptr, ptr %4, align 8
  store ptr null, ptr %4, align 8
  %.not = icmp eq ptr %.060, null
  br i1 %.not, label %13, label %10

10:                                               ; preds = %8
  %11 = load ptr, ptr %5, align 8
  %12 = getelementptr inbounds nuw i8, ptr %.058, i64 56
  store ptr %11, ptr %12, align 8
  store ptr %.060, ptr %5, align 8
  br label %13

13:                                               ; preds = %10, %8
  tail call void @SDL_UnlockSpinlock_REAL(ptr noundef nonnull %3) #3
  %.not69105 = icmp eq ptr %9, null
  br i1 %.not69105, label %._crit_edge, label %.lr.ph107

.lr.ph107:                                        ; preds = %13, %SDL_AddTimerInternal.exit
  %.057106 = phi ptr [ %15, %SDL_AddTimerInternal.exit ], [ %9, %13 ]
  %14 = getelementptr inbounds nuw i8, ptr %.057106, i64 56
  %15 = load ptr, ptr %14, align 8
  %.015.i = load ptr, ptr %6, align 8
  %.not16.i = icmp eq ptr %.015.i, null
  br i1 %.not16.i, label %._crit_edge.thread.i, label %.lr.ph.i

.lr.ph.i:                                         ; preds = %.lr.ph107
  %16 = getelementptr inbounds nuw i8, ptr %.057106, i64 40
  %17 = load i64, ptr %16, align 8
  %18 = getelementptr inbounds nuw i8, ptr %.015.i, i64 40
  %19 = load i64, ptr %18, align 8
  %20 = icmp ugt i64 %19, %17
  br i1 %20, label %._crit_edge.thread.i, label %.lr.ph

21:                                               ; preds = %.lr.ph
  %22 = getelementptr inbounds nuw i8, ptr %.0.i, i64 40
  %23 = load i64, ptr %22, align 8
  %24 = icmp ugt i64 %23, %17
  br i1 %24, label %._crit_edge.thread28.i, label %.lr.ph, !llvm.loop !3

.lr.ph:                                           ; preds = %.lr.ph.i, %21
  %.018.i103 = phi ptr [ %.0.i, %21 ], [ %.015.i, %.lr.ph.i ]
  %25 = getelementptr inbounds nuw i8, ptr %.018.i103, i64 56
  %.0.i = load ptr, ptr %25, align 8
  %.not.i = icmp eq ptr %.0.i, null
  br i1 %.not.i, label %._crit_edge.thread28.i, label %21, !llvm.loop !3

._crit_edge.thread28.i:                           ; preds = %.lr.ph, %21
  %26 = getelementptr inbounds nuw i8, ptr %.018.i103, i64 56
  store ptr %.057106, ptr %26, align 8
  br label %SDL_AddTimerInternal.exit

._crit_edge.thread.i:                             ; preds = %.lr.ph.i, %.lr.ph107
  store ptr %.057106, ptr %6, align 8
  br label %SDL_AddTimerInternal.exit

SDL_AddTimerInternal.exit:                        ; preds = %._crit_edge.thread28.i, %._crit_edge.thread.i
  %.0.lcssa26.i = phi ptr [ %.015.i, %._crit_edge.thread.i ], [ %.0.i, %._crit_edge.thread28.i ]
  store ptr %.0.lcssa26.i, ptr %14, align 8
  %.not69 = icmp eq ptr %15, null
  br i1 %.not69, label %._crit_edge, label %.lr.ph107, !llvm.loop !5

._crit_edge:                                      ; preds = %SDL_AddTimerInternal.exit, %13
  %27 = tail call i32 @SDL_GetAtomicInt_REAL(ptr noundef nonnull %2) #3
  %.not70 = icmp eq i32 %27, 0
  br i1 %.not70, label %87, label %28

28:                                               ; preds = %._crit_edge
  %29 = tail call i64 @SDL_GetTicksNS_REAL()
  %30 = load ptr, ptr %6, align 8
  %.not71112 = icmp eq ptr %30, null
  br i1 %.not71112, label %.loopexit, label %.lr.ph116

.lr.ph116:                                        ; preds = %28, %81
  %31 = phi ptr [ %82, %81 ], [ %30, %28 ]
  %.159114 = phi ptr [ %.2, %81 ], [ null, %28 ]
  %.161113 = phi ptr [ %.262, %81 ], [ null, %28 ]
  %32 = getelementptr inbounds nuw i8, ptr %31, i64 40
  %33 = load i64, ptr %32, align 8
  %34 = icmp ult i64 %29, %33
  br i1 %34, label %35, label %37

35:                                               ; preds = %.lr.ph116
  %36 = sub nuw i64 %33, %29
  br label %.loopexit

37:                                               ; preds = %.lr.ph116
  %38 = getelementptr inbounds nuw i8, ptr %31, i64 56
  %39 = load ptr, ptr %38, align 8
  store ptr %39, ptr %6, align 8
  %40 = getelementptr inbounds nuw i8, ptr %31, i64 48
  %41 = tail call i32 @SDL_GetAtomicInt_REAL(ptr noundef nonnull %40) #3
  %.not72 = icmp eq i32 %41, 0
  br i1 %.not72, label %42, label %.thread

42:                                               ; preds = %37
  %43 = getelementptr inbounds nuw i8, ptr %31, i64 8
  %44 = load ptr, ptr %43, align 8
  %.not73 = icmp eq ptr %44, null
  br i1 %.not73, label %56, label %45

45:                                               ; preds = %42
  %46 = getelementptr inbounds nuw i8, ptr %31, i64 24
  %47 = load ptr, ptr %46, align 8
  %48 = load i32, ptr %31, align 8
  %49 = getelementptr inbounds nuw i8, ptr %31, i64 32
  %50 = load i64, ptr %49, align 8
  %51 = udiv i64 %50, 1000000
  %52 = trunc i64 %51 to i32
  %53 = tail call i32 %44(ptr noundef %47, i32 noundef %48, i32 noundef %52) #3
  %54 = zext i32 %53 to i64
  %55 = mul nuw nsw i64 %54, 1000000
  br label %65

56:                                               ; preds = %42
  %57 = getelementptr inbounds nuw i8, ptr %31, i64 16
  %58 = load ptr, ptr %57, align 8
  %59 = getelementptr inbounds nuw i8, ptr %31, i64 24
  %60 = load ptr, ptr %59, align 8
  %61 = load i32, ptr %31, align 8
  %62 = getelementptr inbounds nuw i8, ptr %31, i64 32
  %63 = load i64, ptr %62, align 8
  %64 = tail call i64 %58(ptr noundef %60, i32 noundef %61, i64 noundef %63) #3
  br label %65

65:                                               ; preds = %45, %56
  %.056 = phi i64 [ %55, %45 ], [ %64, %56 ]
  %.not74 = icmp eq i64 %.056, 0
  br i1 %.not74, label %.thread, label %66

66:                                               ; preds = %65
  %67 = getelementptr inbounds nuw i8, ptr %31, i64 32
  store i64 %.056, ptr %67, align 8
  %68 = add i64 %.056, %29
  store i64 %68, ptr %32, align 8
  %.015.i77 = load ptr, ptr %6, align 8
  %.not16.i78 = icmp eq ptr %.015.i77, null
  br i1 %.not16.i78, label %._crit_edge.thread.i90, label %.lr.ph.i79.preheader

.lr.ph.i79.preheader:                             ; preds = %66
  %69 = getelementptr inbounds nuw i8, ptr %.015.i77, i64 40
  %70 = load i64, ptr %69, align 8
  %71 = icmp ugt i64 %70, %68
  br i1 %71, label %._crit_edge.thread.i90, label %.lr.ph109

.lr.ph.i79:                                       ; preds = %.lr.ph109
  %72 = getelementptr inbounds nuw i8, ptr %.0.i82, i64 40
  %73 = load i64, ptr %72, align 8
  %74 = icmp ugt i64 %73, %68
  br i1 %74, label %._crit_edge.thread28.i84, label %.lr.ph109, !llvm.loop !3

.lr.ph109:                                        ; preds = %.lr.ph.i79.preheader, %.lr.ph.i79
  %.018.i80108 = phi ptr [ %.0.i82, %.lr.ph.i79 ], [ %.015.i77, %.lr.ph.i79.preheader ]
  %75 = getelementptr inbounds nuw i8, ptr %.018.i80108, i64 56
  %.0.i82 = load ptr, ptr %75, align 8
  %.not.i83 = icmp eq ptr %.0.i82, null
  br i1 %.not.i83, label %._crit_edge.thread28.i84, label %.lr.ph.i79, !llvm.loop !3

._crit_edge.thread28.i84:                         ; preds = %.lr.ph109, %.lr.ph.i79
  %76 = getelementptr inbounds nuw i8, ptr %.018.i80108, i64 56
  store ptr %31, ptr %76, align 8
  br label %SDL_AddTimerInternal.exit92

._crit_edge.thread.i90:                           ; preds = %.lr.ph.i79.preheader, %66
  store ptr %31, ptr %6, align 8
  br label %SDL_AddTimerInternal.exit92

SDL_AddTimerInternal.exit92:                      ; preds = %._crit_edge.thread28.i84, %._crit_edge.thread.i90
  %.0.lcssa26.i87 = phi ptr [ %.015.i77, %._crit_edge.thread.i90 ], [ %.0.i82, %._crit_edge.thread28.i84 ]
  store ptr %.0.lcssa26.i87, ptr %38, align 8
  br label %81

.thread:                                          ; preds = %37, %65
  %.not75 = icmp eq ptr %.161113, null
  %spec.select = select i1 %.not75, ptr %31, ptr %.161113
  %.not76 = icmp eq ptr %.159114, null
  br i1 %.not76, label %79, label %77

77:                                               ; preds = %.thread
  %78 = getelementptr inbounds nuw i8, ptr %.159114, i64 56
  store ptr %31, ptr %78, align 8
  br label %79

79:                                               ; preds = %77, %.thread
  %80 = tail call i32 @SDL_SetAtomicInt_REAL(ptr noundef nonnull %40, i32 noundef 1) #3
  br label %81

81:                                               ; preds = %79, %SDL_AddTimerInternal.exit92
  %.262 = phi ptr [ %.161113, %SDL_AddTimerInternal.exit92 ], [ %spec.select, %79 ]
  %.2 = phi ptr [ %.159114, %SDL_AddTimerInternal.exit92 ], [ %31, %79 ]
  %82 = load ptr, ptr %6, align 8
  %.not71 = icmp eq ptr %82, null
  br i1 %.not71, label %.loopexit, label %.lr.ph116, !llvm.loop !6

.loopexit:                                        ; preds = %81, %28, %35
  %.161102 = phi ptr [ %.161113, %35 ], [ null, %28 ], [ %.262, %81 ]
  %.159100 = phi ptr [ %.159114, %35 ], [ null, %28 ], [ %.2, %81 ]
  %.0 = phi i64 [ %36, %35 ], [ -1, %28 ], [ -1, %81 ]
  %83 = tail call i64 @SDL_GetTicksNS_REAL()
  %84 = sub i64 %83, %29
  %.1 = tail call i64 @llvm.usub.sat.i64(i64 %.0, i64 %84)
  %85 = load ptr, ptr %7, align 8
  %86 = tail call zeroext i1 @SDL_WaitSemaphoreTimeoutNS(ptr noundef %85, i64 noundef %.1) #3
  br label %8

87:                                               ; preds = %._crit_edge
  ret i32 0
}